target datalayout = "e-m:e-p270:32:32-p271:32:32-p272:64:64-i64:64-i128:128-f80:128-n8:16:32:64-S128"
target triple = "x86_64-pc-linux-gnu"

%struct.redisObject = type { i32, i32, ptr }
%struct.sdshdr8 = type { i8, i8, i8, [0 x i8] }
%struct.sdshdr16 = type <{ i16, i16, i8, [0 x i8] }>
%struct.sdshdr32 = type <{ i32, i32, i8, [0 x i8] }>
%struct.sdshdr64 = type <{ i64, i64, i8, [0 x i8] }>

@lua_args_cached_objects = internal global [32 x ptr] zeroinitializer, align 16
@lua_args_cached_objects_len = internal global [32 x i64] zeroinitializer, align 16
@lua_argv = internal global ptr null, align 8
@lua_argv_size = internal global i32 0, align 4

; Function Attrs: inlinehint nounwind uwtable
define internal i64 @sdsalloc(ptr noundef %0) #6 {
  %2 = alloca i64, align 8
  %3 = alloca ptr, align 8
  %4 = alloca i8, align 1
  %5 = alloca i32, align 4
  store ptr %0, ptr %3, align 8, !tbaa !10
  call void @llvm.lifetime.start.p0(i64 1, ptr %4) #12
  %6 = load ptr, ptr %3, align 8, !tbaa !10
  %7 = getelementptr inbounds i8, ptr %6, i64 -1
  %8 = load i8, ptr %7, align 1, !tbaa !13
  store i8 %8, ptr %4, align 1, !tbaa !13
  %9 = load i8, ptr %4, align 1, !tbaa !13
  %10 = zext i8 %9 to i32
  %11 = and i32 %10, 7
  switch i32 %11, label %40 [
    i32 0, label %12
    i32 1, label %17
    i32 2, label %23
    i32 3, label %29
    i32 4, label %35
  ]

12:                                               ; preds = %1
  %13 = load i8, ptr %4, align 1, !tbaa !13
  %14 = zext i8 %13 to i32
  %15 = ashr i32 %14, 3
  %16 = sext i32 %15 to i64
  store i64 %16, ptr %2, align 8
  store i32 1, ptr %5, align 4
  br label %41

17:                                               ; preds = %1
  %18 = load ptr, ptr %3, align 8, !tbaa !10
  %19 = getelementptr inbounds i8, ptr %18, i64 -3
  %20 = getelementptr inbounds nuw %struct.sdshdr8, ptr %19, i32 0, i32 1
  %21 = load i8, ptr %20, align 1, !tbaa !13
  %22 = zext i8 %21 to i64
  store i64 %22, ptr %2, align 8
  store i32 1, ptr %5, align 4
  br label %41

23:                                               ; preds = %1
  %24 = load ptr, ptr %3, align 8, !tbaa !10
  %25 = getelementptr inbounds i8, ptr %24, i64 -5
  %26 = getelementptr inbounds nuw %struct.sdshdr16, ptr %25, i32 0, i32 1
  %27 = load i16, ptr %26, align 1, !tbaa !27
  %28 = zext i16 %27 to i64
  store i64 %28, ptr %2, align 8
  store i32 1, ptr %5, align 4
  br label %41

29:                                               ; preds = %1
  %30 = load ptr, ptr %3, align 8, !tbaa !10
  %31 = getelementptr inbounds i8, ptr %30, i64 -9
  %32 = getelementptr inbounds nuw %struct.sdshdr32, ptr %31, i32 0, i32 1
  %33 = load i32, ptr %32, align 1, !tbaa !16
  %34 = zext i32 %33 to i64
  store i64 %34, ptr %2, align 8
  store i32 1, ptr %5, align 4
  br label %41

35:                                               ; preds = %1
  %36 = load ptr, ptr %3, align 8, !tbaa !10
  %37 = getelementptr inbounds i8, ptr %36, i64 -17
  %38 = getelementptr inbounds nuw %struct.sdshdr64, ptr %37, i32 0, i32 1
  %39 = load i64, ptr %38, align 1, !tbaa !23
  store i64 %39, ptr %2, align 8
  store i32 1, ptr %5, align 4
  br label %41

40:                                               ; preds = %1
  store i64 0, ptr %2, align 8
  store i32 1, ptr %5, align 4
  br label %41

41:                                               ; preds = %40, %35, %29, %23, %17, %12
  call void @llvm.lifetime.end.p0(i64 1, ptr %4) #12
  %42 = load i64, ptr %2, align 8
  ret i64 %42
}

; Function Attrs: inlinehint nounwind uwtable
define internal i64 @sdslen(ptr noundef %0) #6 {
  %2 = alloca i64, align 8
  %3 = alloca ptr, align 8
  %4 = alloca i8, align 1
  %5 = alloca i32, align 4
  store ptr %0, ptr %3, align 8, !tbaa !10
  call void @llvm.lifetime.start.p0(i64 1, ptr %4) #12
  %6 = load ptr, ptr %3, align 8, !tbaa !10
  %7 = getelementptr inbounds i8, ptr %6, i64 -1
  %8 = load i8, ptr %7, align 1, !tbaa !13
  store i8 %8, ptr %4, align 1, !tbaa !13
  %9 = load i8, ptr %4, align 1, !tbaa !13
  %10 = zext i8 %9 to i32
  %11 = and i32 %10, 7
  switch i32 %11, label %40 [
    i32 0, label %12
    i32 1, label %17
    i32 2, label %23
    i32 3, label %29
    i32 4, label %35
  ]

12:                                               ; preds = %1
  %13 = load i8, ptr %4, align 1, !tbaa !13
  %14 = zext i8 %13 to i32
  %15 = ashr i32 %14, 3
  %16 = sext i32 %15 to i64
  store i64 %16, ptr %2, align 8
  store i32 1, ptr %5, align 4
  br label %41

17:                                               ; preds = %1
  %18 = load ptr, ptr %3, align 8, !tbaa !10
  %19 = getelementptr inbounds i8, ptr %18, i64 -3
  %20 = getelementptr inbounds nuw %struct.sdshdr8, ptr %19, i32 0, i32 0
  %21 = load i8, ptr %20, align 1, !tbaa !13
  %22 = zext i8 %21 to i64
  store i64 %22, ptr %2, align 8
  store i32 1, ptr %5, align 4
  br label %41

23:                                               ; preds = %1
  %24 = load ptr, ptr %3, align 8, !tbaa !10
  %25 = getelementptr inbounds i8, ptr %24, i64 -5
  %26 = getelementptr inbounds nuw %struct.sdshdr16, ptr %25, i32 0, i32 0
  %27 = load i16, ptr %26, align 1, !tbaa !27
  %28 = zext i16 %27 to i64
  store i64 %28, ptr %2, align 8
  store i32 1, ptr %5, align 4
  br label %41

29:                                               ; preds = %1
  %30 = load ptr, ptr %3, align 8, !tbaa !10
  %31 = getelementptr inbounds i8, ptr %30, i64 -9
  %32 = getelementptr inbounds nuw %struct.sdshdr32, ptr %31, i32 0, i32 0
  %33 = load i32, ptr %32, align 1, !tbaa !16
  %34 = zext i32 %33 to i64
  store i64 %34, ptr %2, align 8
  store i32 1, ptr %5, align 4
  br label %41

35:                                               ; preds = %1
  %36 = load ptr, ptr %3, align 8, !tbaa !10
  %37 = getelementptr inbounds i8, ptr %36, i64 -17
  %38 = getelementptr inbounds nuw %struct.sdshdr64, ptr %37, i32 0, i32 0
  %39 = load i64, ptr %38, align 1, !tbaa !23
  store i64 %39, ptr %2, align 8
  store i32 1, ptr %5, align 4
  br label %41

40:                                               ; preds = %1
  store i64 0, ptr %2, align 8
  store i32 1, ptr %5, align 4
  br label %41

41:                                               ; preds = %40, %35, %29, %23, %17, %12
  call void @llvm.lifetime.end.p0(i64 1, ptr %4) #12
  %42 = load i64, ptr %2, align 8
  ret i64 %42
}

; Function Attrs: nounwind uwtable
define dso_local void @freeLuaRedisArgv(ptr noundef %0, i32 noundef %1, i32 noundef %2) #0 {
  %4 = alloca ptr, align 8
  %5 = alloca i32, align 4
  %6 = alloca i32, align 4
  %7 = alloca i32, align 4
  %8 = alloca ptr, align 8
  %9 = alloca ptr, align 8
  store ptr %0, ptr %4, align 8, !tbaa !14
  store i32 %1, ptr %5, align 4, !tbaa !16
  store i32 %2, ptr %6, align 4, !tbaa !16
  call void @llvm.lifetime.start.p0(i64 4, ptr %7) #12
  store i32 0, ptr %7, align 4, !tbaa !16
  br label %10

10:                                               ; preds = %72, %3
  %11 = load i32, ptr %7, align 4, !tbaa !16
  %12 = load i32, ptr %5, align 4, !tbaa !16
  %13 = icmp slt i32 %11, %12
  br i1 %13, label %14, label %75

14:                                               ; preds = %10
  call void @llvm.lifetime.start.p0(i64 8, ptr %8) #12
  %15 = load ptr, ptr %4, align 8, !tbaa !14
  %16 = load i32, ptr %7, align 4, !tbaa !16
  %17 = sext i32 %16 to i64
  %18 = getelementptr inbounds ptr, ptr %15, i64 %17
  %19 = load ptr, ptr %18, align 8, !tbaa !18
  store ptr %19, ptr %8, align 8, !tbaa !18
  %20 = load i32, ptr %7, align 4, !tbaa !16
  %21 = icmp slt i32 %20, 32
  br i1 %21, label %22, label %69

22:                                               ; preds = %14
  %23 = load ptr, ptr %8, align 8, !tbaa !18
  %24 = getelementptr inbounds nuw %struct.redisObject, ptr %23, i32 0, i32 1
  %25 = load i32, ptr %24, align 4, !tbaa !20
  %26 = icmp eq i32 %25, 1
  br i1 %26, label %27, label %69

27:                                               ; preds = %22
  %28 = load ptr, ptr %8, align 8, !tbaa !18
  %29 = load i32, ptr %28, align 8
  %30 = lshr i32 %29, 4
  %31 = and i32 %30, 15
  %32 = icmp eq i32 %31, 0
  br i1 %32, label %39, label %33

33:                                               ; preds = %27
  %34 = load ptr, ptr %8, align 8, !tbaa !18
  %35 = load i32, ptr %34, align 8
  %36 = lshr i32 %35, 4
  %37 = and i32 %36, 15
  %38 = icmp eq i32 %37, 8
  br i1 %38, label %39, label %69

39:                                               ; preds = %33, %27
  %40 = load ptr, ptr %8, align 8, !tbaa !18
  %41 = getelementptr inbounds nuw %struct.redisObject, ptr %40, i32 0, i32 2
  %42 = load ptr, ptr %41, align 8, !tbaa !22
  %43 = call i64 @sdslen(ptr noundef %42)
  %44 = icmp ule i64 %43, 64
  br i1 %44, label %45, label %69

45:                                               ; preds = %39
  call void @llvm.lifetime.start.p0(i64 8, ptr %9) #12
  %46 = load ptr, ptr %8, align 8, !tbaa !18
  %47 = getelementptr inbounds nuw %struct.redisObject, ptr %46, i32 0, i32 2
  %48 = load ptr, ptr %47, align 8, !tbaa !22
  store ptr %48, ptr %9, align 8, !tbaa !10
  %49 = load i32, ptr %7, align 4, !tbaa !16
  %50 = sext i32 %49 to i64
  %51 = getelementptr inbounds [32 x ptr], ptr @lua_args_cached_objects, i64 0, i64 %50
  %52 = load ptr, ptr %51, align 8, !tbaa !18
  %53 = icmp ne ptr %52, null
  br i1 %53, label %54, label %59

54:                                               ; preds = %45
  %55 = load i32, ptr %7, align 4, !tbaa !16
  %56 = sext i32 %55 to i64
  %57 = getelementptr inbounds [32 x ptr], ptr @lua_args_cached_objects, i64 0, i64 %56
  %58 = load ptr, ptr %57, align 8, !tbaa !18
  call void @decrRefCount(ptr noundef %58)
  br label %59

59:                                               ; preds = %54, %45
  %60 = load ptr, ptr %8, align 8, !tbaa !18
  %61 = load i32, ptr %7, align 4, !tbaa !16
  %62 = sext i32 %61 to i64
  %63 = getelementptr inbounds [32 x ptr], ptr @lua_args_cached_objects, i64 0, i64 %62
  store ptr %60, ptr %63, align 8, !tbaa !18
  %64 = load ptr, ptr %9, align 8, !tbaa !10
  %65 = call i64 @sdsalloc(ptr noundef %64)
  %66 = load i32, ptr %7, align 4, !tbaa !16
  %67 = sext i32 %66 to i64
  %68 = getelementptr inbounds [32 x i64], ptr @lua_args_cached_objects_len, i64 0, i64 %67
  store i64 %65, ptr %68, align 8, !tbaa !23
  call void @llvm.lifetime.end.p0(i64 8, ptr %9) #12
  br label %71

69:                                               ; preds = %39, %33, %22, %14
  %70 = load ptr, ptr %8, align 8, !tbaa !18
  call void @decrRefCount(ptr noundef %70)
  br label %71

71:                                               ; preds = %69, %59
  call void @llvm.lifetime.end.p0(i64 8, ptr %8) #12
  br label %72

72:                                               ; preds = %71
  %73 = load i32, ptr %7, align 4, !tbaa !16
  %74 = add nsw i32 %73, 1
  store i32 %74, ptr %7, align 4, !tbaa !16
  br label %10, !llvm.loop !25

75:                                               ; preds = %10
  %76 = load ptr, ptr %4, align 8, !tbaa !14
  %77 = load ptr, ptr @lua_argv, align 8, !tbaa !14
  %78 = icmp ne ptr %76, %77
  br i1 %78, label %83, label %79

79:                                               ; preds = %75
  %80 = load i32, ptr %6, align 4, !tbaa !16
  %81 = load i32, ptr @lua_argv_size, align 4, !tbaa !16
  %82 = icmp ne i32 %80, %81
  br i1 %82, label %83, label %85

83:                                               ; preds = %79, %75
  %84 = load ptr, ptr %4, align 8, !tbaa !14
  call void @zfree(ptr noundef %84)
  store ptr null, ptr @lua_argv, align 8, !tbaa !14
  store i32 0, ptr @lua_argv_size, align 4, !tbaa !16
  br label %85

85:                                               ; preds = %83, %79
  call void @llvm.lifetime.end.p0(i64 4, ptr %7) #12
  ret void
}