; Function Attrs: nounwind uwtable
define dso_local void @freeLuaRedisArgv(ptr noundef %0, i32 noundef %1, i32 noundef %2) local_unnamed_addr #0 {
  %4 = icmp sgt i32 %1, 0
  br i1 %4, label %.lr.ph.preheader, label %._crit_edge

.lr.ph.preheader:                                 ; preds = %3
  %wide.trip.count = zext nneg i32 %1 to i64
  br label %.lr.ph

.lr.ph:                                           ; preds = %.lr.ph.preheader, %65
  %indvars.iv = phi i64 [ 0, %.lr.ph.preheader ], [ %indvars.iv.next, %65 ]
  %5 = getelementptr inbounds nuw ptr, ptr %0, i64 %indvars.iv
  %6 = load ptr, ptr %5, align 8, !tbaa !10
  %7 = icmp samesign ult i64 %indvars.iv, 32
  br i1 %7, label %8, label %64

8:                                                ; preds = %.lr.ph
  %9 = getelementptr inbounds nuw i8, ptr %6, i64 4
  %10 = load i32, ptr %9, align 4, !tbaa !13
  %11 = icmp eq i32 %10, 1
  br i1 %11, label %12, label %64

12:                                               ; preds = %8
  %13 = load i32, ptr %6, align 8
  %14 = lshr i32 %13, 4
  %15 = and i32 %14, 15
  switch i32 %15, label %64 [
    i32 0, label %16
    i32 8, label %16
  ]

16:                                               ; preds = %12, %12
  %17 = getelementptr inbounds nuw i8, ptr %6, i64 8
  %18 = load ptr, ptr %17, align 8, !tbaa !16
  %19 = getelementptr inbounds i8, ptr %18, i64 -1
  %20 = load i8, ptr %19, align 1, !tbaa !7
  %21 = and i8 %20, 7
  switch i8 %21, label %sdslen.exit.thread [
    i8 4, label %34
    i8 1, label %22
    i8 2, label %26
    i8 3, label %30
  ]

22:                                               ; preds = %16
  %23 = getelementptr inbounds i8, ptr %18, i64 -3
  %24 = load i8, ptr %23, align 1, !tbaa !7
  %25 = zext i8 %24 to i64
  br label %sdslen.exit

26:                                               ; preds = %16
  %27 = getelementptr inbounds i8, ptr %18, i64 -5
  %28 = load i16, ptr %27, align 1, !tbaa !17
  %29 = zext i16 %28 to i64
  br label %sdslen.exit

30:                                               ; preds = %16
  %31 = getelementptr inbounds i8, ptr %18, i64 -9
  %32 = load i32, ptr %31, align 1, !tbaa !19
  %33 = zext i32 %32 to i64
  br label %sdslen.exit

34:                                               ; preds = %16
  %35 = getelementptr inbounds i8, ptr %18, i64 -17
  %36 = load i64, ptr %35, align 1, !tbaa !20
  br label %sdslen.exit

sdslen.exit:                                      ; preds = %22, %26, %30, %34
  %.0.i = phi i64 [ %36, %34 ], [ %33, %30 ], [ %29, %26 ], [ %25, %22 ]
  %37 = icmp ult i64 %.0.i, 65
  br i1 %37, label %sdslen.exit.thread, label %64

sdslen.exit.thread:                               ; preds = %16, %sdslen.exit
  %38 = getelementptr inbounds nuw [32 x ptr], ptr @lua_args_cached_objects, i64 0, i64 %indvars.iv
  %39 = load ptr, ptr %38, align 8, !tbaa !10
  %.not23 = icmp eq ptr %39, null
  br i1 %.not23, label %41, label %40

40:                                               ; preds = %sdslen.exit.thread
  tail call void @decrRefCount(ptr noundef nonnull %39) #11
  %.pre = load i8, ptr %19, align 1, !tbaa !7
  br label %41

41:                                               ; preds = %40, %sdslen.exit.thread
  %42 = phi i8 [ %.pre, %40 ], [ %20, %sdslen.exit.thread ]
  store ptr %6, ptr %38, align 8, !tbaa !10
  %43 = zext i8 %42 to i32
  %44 = and i32 %43, 7
  switch i32 %44, label %sdsalloc.exit [
    i32 0, label %45
    i32 1, label %48
    i32 2, label %52
    i32 3, label %56
    i32 4, label %60
  ]

45:                                               ; preds = %41
  %46 = lshr i32 %43, 3
  %47 = zext nneg i32 %46 to i64
  br label %sdsalloc.exit

48:                                               ; preds = %41
  %49 = getelementptr inbounds i8, ptr %18, i64 -2
  %50 = load i8, ptr %49, align 1, !tbaa !7
  %51 = zext i8 %50 to i64
  br label %sdsalloc.exit

52:                                               ; preds = %41
  %53 = getelementptr inbounds i8, ptr %18, i64 -3
  %54 = load i16, ptr %53, align 1, !tbaa !17
  %55 = zext i16 %54 to i64
  br label %sdsalloc.exit

56:                                               ; preds = %41
  %57 = getelementptr inbounds i8, ptr %18, i64 -5
  %58 = load i32, ptr %57, align 1, !tbaa !19
  %59 = zext i32 %58 to i64
  br label %sdsalloc.exit

60:                                               ; preds = %41
  %61 = getelementptr inbounds i8, ptr %18, i64 -9
  %62 = load i64, ptr %61, align 1, !tbaa !20
  br label %sdsalloc.exit

sdsalloc.exit:                                    ; preds = %41, %45, %48, %52, %56, %60
  %.0.i24 = phi i64 [ %62, %60 ], [ %59, %56 ], [ %55, %52 ], [ %51, %48 ], [ %47, %45 ], [ 0, %41 ]
  %63 = getelementptr inbounds nuw [32 x i64], ptr @lua_args_cached_objects_len, i64 0, i64 %indvars.iv
  store i64 %.0.i24, ptr %63, align 8, !tbaa !20
  br label %65

64:                                               ; preds = %12, %sdslen.exit, %8, %.lr.ph
  tail call void @decrRefCount(ptr noundef %6) #11
  br label %65

65:                                               ; preds = %64, %sdsalloc.exit
  %indvars.iv.next = add nuw nsw i64 %indvars.iv, 1
  %exitcond.not = icmp eq i64 %indvars.iv.next, %wide.trip.count
  br i1 %exitcond.not, label %._crit_edge, label %.lr.ph, !llvm.loop !22

._crit_edge:                                      ; preds = %65, %3
  %66 = load ptr, ptr @lua_argv, align 8, !tbaa !24
  %.not = icmp eq ptr %0, %66
  %67 = load i32, ptr @lua_argv_size, align 4
  %.not22 = icmp eq i32 %2, %67
  %or.cond = select i1 %.not, i1 %.not22, i1 false
  br i1 %or.cond, label %69, label %68

68:                                               ; preds = %._crit_edge
  tail call void @zfree(ptr noundef %0) #11
  store ptr null, ptr @lua_argv, align 8, !tbaa !24
  store i32 0, ptr @lua_argv_size, align 4, !tbaa !19
  br label %69

69:                                               ; preds = %._crit_edge, %68
  ret void
}